target datalayout = "e-m:e-p270:32:32-p271:32:32-p272:64:64-i64:64-i128:128-f80:128-n8:16:32:64-S128"
target triple = "x86_64-pc-linux-gnu"

; Function Attrs: nounwind uwtable
define internal double @xpow10(i32 noundef %0) #0 {
  %2 = alloca i32, align 4
  store i32 %0, ptr %2, align 4
  %3 = load i32, ptr %2, align 4
  %4 = sitofp i32 %3 to double
  %5 = call double @pow(double noundef 1.000000e+01, double noundef %4) #9
  ret double %5
}

; Function Attrs: nounwind uwtable
define internal double @ParseFloatNumber(ptr noundef %0) #0 {
  %2 = alloca double, align 8
  %3 = alloca ptr, align 8
  %4 = alloca double, align 8
  %5 = alloca i32, align 4
  %6 = alloca double, align 8
  %7 = alloca i32, align 4
  %8 = alloca i32, align 4
  %9 = alloca i32, align 4
  %10 = alloca i32, align 4
  store ptr %0, ptr %3, align 8
  store double 0.000000e+00, ptr %4, align 8
  store i32 1, ptr %5, align 4
  %11 = load ptr, ptr %3, align 8
  %12 = icmp eq ptr %11, null
  br i1 %12, label %13, label %14

13:                                               ; preds = %1
  store double 0.000000e+00, ptr %2, align 8
  br label %225

14:                                               ; preds = %1
  %15 = load ptr, ptr %3, align 8
  %16 = load i8, ptr %15, align 1
  %17 = sext i8 %16 to i32
  %18 = icmp eq i32 %17, 45
  br i1 %18, label %24, label %19

19:                                               ; preds = %14
  %20 = load ptr, ptr %3, align 8
  %21 = load i8, ptr %20, align 1
  %22 = sext i8 %21 to i32
  %23 = icmp eq i32 %22, 43
  br i1 %23, label %24, label %32

24:                                               ; preds = %19, %14
  %25 = load ptr, ptr %3, align 8
  %26 = load i8, ptr %25, align 1
  %27 = sext i8 %26 to i32
  %28 = icmp eq i32 %27, 45
  %29 = select i1 %28, i32 -1, i32 1
  store i32 %29, ptr %5, align 4
  %30 = load ptr, ptr %3, align 8
  %31 = getelementptr inbounds i8, ptr %30, i32 1
  store ptr %31, ptr %3, align 8
  br label %32

32:                                               ; preds = %24, %19
  br label %33

33:                                               ; preds = %66, %32
  %34 = load ptr, ptr %3, align 8
  %35 = load i8, ptr %34, align 1
  %36 = sext i8 %35 to i32
  %37 = icmp ne i32 %36, 0
  br i1 %37, label %38, label %50

38:                                               ; preds = %33
  %39 = call ptr @__ctype_b_loc() #10
  %40 = load ptr, ptr %39, align 8
  %41 = load ptr, ptr %3, align 8
  %42 = load i8, ptr %41, align 1
  %43 = sext i8 %42 to i32
  %44 = sext i32 %43 to i64
  %45 = getelementptr inbounds i16, ptr %40, i64 %44
  %46 = load i16, ptr %45, align 2
  %47 = zext i16 %46 to i32
  %48 = and i32 %47, 2048
  %49 = icmp ne i32 %48, 0
  br label %50

50:                                               ; preds = %38, %33
  %51 = phi i1 [ false, %33 ], [ %49, %38 ]
  br i1 %51, label %52, label %67

52:                                               ; preds = %50
  %53 = load double, ptr %4, align 8
  %54 = load ptr, ptr %3, align 8
  %55 = load i8, ptr %54, align 1
  %56 = sext i8 %55 to i32
  %57 = sub nsw i32 %56, 48
  %58 = sitofp i32 %57 to double
  %59 = call double @llvm.fmuladd.f64(double %53, double 1.000000e+01, double %58)
  store double %59, ptr %4, align 8
  %60 = load ptr, ptr %3, align 8
  %61 = load i8, ptr %60, align 1
  %62 = icmp ne i8 %61, 0
  br i1 %62, label %63, label %66

63:                                               ; preds = %52
  %64 = load ptr, ptr %3, align 8
  %65 = getelementptr inbounds i8, ptr %64, i32 1
  store ptr %65, ptr %3, align 8
  br label %66

66:                                               ; preds = %63, %52
  br label %33, !llvm.loop !13

67:                                               ; preds = %50
  %68 = load ptr, ptr %3, align 8
  %69 = load i8, ptr %68, align 1
  %70 = sext i8 %69 to i32
  %71 = icmp eq i32 %70, 46
  br i1 %71, label %72, label %123

72:                                               ; preds = %67
  store double 0.000000e+00, ptr %6, align 8
  store i32 0, ptr %7, align 4
  %73 = load ptr, ptr %3, align 8
  %74 = load i8, ptr %73, align 1
  %75 = icmp ne i8 %74, 0
  br i1 %75, label %76, label %79

76:                                               ; preds = %72
  %77 = load ptr, ptr %3, align 8
  %78 = getelementptr inbounds i8, ptr %77, i32 1
  store ptr %78, ptr %3, align 8
  br label %79

79:                                               ; preds = %76, %72
  br label %80

80:                                               ; preds = %115, %79
  %81 = load ptr, ptr %3, align 8
  %82 = load i8, ptr %81, align 1
  %83 = sext i8 %82 to i32
  %84 = icmp ne i32 %83, 0
  br i1 %84, label %85, label %97

85:                                               ; preds = %80
  %86 = call ptr @__ctype_b_loc() #10
  %87 = load ptr, ptr %86, align 8
  %88 = load ptr, ptr %3, align 8
  %89 = load i8, ptr %88, align 1
  %90 = sext i8 %89 to i32
  %91 = sext i32 %90 to i64
  %92 = getelementptr inbounds i16, ptr %87, i64 %91
  %93 = load i16, ptr %92, align 2
  %94 = zext i16 %93 to i32
  %95 = and i32 %94, 2048
  %96 = icmp ne i32 %95, 0
  br label %97

97:                                               ; preds = %85, %80
  %98 = phi i1 [ false, %80 ], [ %96, %85 ]
  br i1 %98, label %99, label %116

99:                                               ; preds = %97
  %100 = load double, ptr %6, align 8
  %101 = load ptr, ptr %3, align 8
  %102 = load i8, ptr %101, align 1
  %103 = sext i8 %102 to i32
  %104 = sub nsw i32 %103, 48
  %105 = sitofp i32 %104 to double
  %106 = call double @llvm.fmuladd.f64(double %100, double 1.000000e+01, double %105)
  store double %106, ptr %6, align 8
  %107 = load i32, ptr %7, align 4
  %108 = add nsw i32 %107, 1
  store i32 %108, ptr %7, align 4
  %109 = load ptr, ptr %3, align 8
  %110 = load i8, ptr %109, align 1
  %111 = icmp ne i8 %110, 0
  br i1 %111, label %112, label %115

112:                                              ; preds = %99
  %113 = load ptr, ptr %3, align 8
  %114 = getelementptr inbounds i8, ptr %113, i32 1
  store ptr %114, ptr %3, align 8
  br label %115

115:                                              ; preds = %112, %99
  br label %80, !llvm.loop !14

116:                                              ; preds = %97
  %117 = load double, ptr %4, align 8
  %118 = load double, ptr %6, align 8
  %119 = load i32, ptr %7, align 4
  %120 = call double @xpow10(i32 noundef %119)
  %121 = fdiv double %118, %120
  %122 = fadd double %117, %121
  store double %122, ptr %4, align 8
  br label %123

123:                                              ; preds = %116, %67
  %124 = load ptr, ptr %3, align 8
  %125 = load i8, ptr %124, align 1
  %126 = sext i8 %125 to i32
  %127 = icmp ne i32 %126, 0
  br i1 %127, label %128, label %220

128:                                              ; preds = %123
  %129 = load ptr, ptr %3, align 8
  %130 = load i8, ptr %129, align 1
  %131 = sext i8 %130 to i32
  %132 = call i32 @toupper(i32 noundef %131) #11
  %133 = icmp eq i32 %132, 69
  br i1 %133, label %134, label %220

134:                                              ; preds = %128
  %135 = load ptr, ptr %3, align 8
  %136 = load i8, ptr %135, align 1
  %137 = icmp ne i8 %136, 0
  br i1 %137, label %138, label %141

138:                                              ; preds = %134
  %139 = load ptr, ptr %3, align 8
  %140 = getelementptr inbounds i8, ptr %139, i32 1
  store ptr %140, ptr %3, align 8
  br label %141

141:                                              ; preds = %138, %134
  store i32 1, ptr %9, align 4
  %142 = load ptr, ptr %3, align 8
  %143 = load i8, ptr %142, align 1
  %144 = sext i8 %143 to i32
  %145 = icmp eq i32 %144, 45
  br i1 %145, label %146, label %154

146:                                              ; preds = %141
  store i32 -1, ptr %9, align 4
  %147 = load ptr, ptr %3, align 8
  %148 = load i8, ptr %147, align 1
  %149 = icmp ne i8 %148, 0
  br i1 %149, label %150, label %153

150:                                              ; preds = %146
  %151 = load ptr, ptr %3, align 8
  %152 = getelementptr inbounds i8, ptr %151, i32 1
  store ptr %152, ptr %3, align 8
  br label %153

153:                                              ; preds = %150, %146
  br label %168

154:                                              ; preds = %141
  %155 = load ptr, ptr %3, align 8
  %156 = load i8, ptr %155, align 1
  %157 = sext i8 %156 to i32
  %158 = icmp eq i32 %157, 43
  br i1 %158, label %159, label %167

159:                                              ; preds = %154
  store i32 1, ptr %9, align 4
  %160 = load ptr, ptr %3, align 8
  %161 = load i8, ptr %160, align 1
  %162 = icmp ne i8 %161, 0
  br i1 %162, label %163, label %166

163:                                              ; preds = %159
  %164 = load ptr, ptr %3, align 8
  %165 = getelementptr inbounds i8, ptr %164, i32 1
  store ptr %165, ptr %3, align 8
  br label %166

166:                                              ; preds = %163, %159
  br label %167

167:                                              ; preds = %166, %154
  br label %168

168:                                              ; preds = %167, %153
  store i32 0, ptr %8, align 4
  br label %169

169:                                              ; preds = %211, %168
  %170 = load ptr, ptr %3, align 8
  %171 = load i8, ptr %170, align 1
  %172 = sext i8 %171 to i32
  %173 = icmp ne i32 %172, 0
  br i1 %173, label %174, label %186

174:                                              ; preds = %169
  %175 = call ptr @__ctype_b_loc() #10
  %176 = load ptr, ptr %175, align 8
  %177 = load ptr, ptr %3, align 8
  %178 = load i8, ptr %177, align 1
  %179 = sext i8 %178 to i32
  %180 = sext i32 %179 to i64
  %181 = getelementptr inbounds i16, ptr %176, i64 %180
  %182 = load i16, ptr %181, align 2
  %183 = zext i16 %182 to i32
  %184 = and i32 %183, 2048
  %185 = icmp ne i32 %184, 0
  br label %186

186:                                              ; preds = %174, %169
  %187 = phi i1 [ false, %169 ], [ %185, %174 ]
  br i1 %187, label %188, label %212

188:                                              ; preds = %186
  %189 = load ptr, ptr %3, align 8
  %190 = load i8, ptr %189, align 1
  %191 = sext i8 %190 to i32
  %192 = sub nsw i32 %191, 48
  store i32 %192, ptr %10, align 4
  %193 = load i32, ptr %8, align 4
  %194 = sitofp i32 %193 to double
  %195 = load i32, ptr %10, align 4
  %196 = sitofp i32 %195 to double
  %197 = call double @llvm.fmuladd.f64(double %194, double 1.000000e+01, double %196)
  %198 = fcmp olt double %197, 0x41DFFFFFFFC00000
  br i1 %198, label %199, label %204

199:                                              ; preds = %188
  %200 = load i32, ptr %8, align 4
  %201 = mul nsw i32 %200, 10
  %202 = load i32, ptr %10, align 4
  %203 = add nsw i32 %201, %202
  store i32 %203, ptr %8, align 4
  br label %204

204:                                              ; preds = %199, %188
  %205 = load ptr, ptr %3, align 8
  %206 = load i8, ptr %205, align 1
  %207 = icmp ne i8 %206, 0
  br i1 %207, label %208, label %211

208:                                              ; preds = %204
  %209 = load ptr, ptr %3, align 8
  %210 = getelementptr inbounds i8, ptr %209, i32 1
  store ptr %210, ptr %3, align 8
  br label %211

211:                                              ; preds = %208, %204
  br label %169, !llvm.loop !15

212:                                              ; preds = %186
  %213 = load i32, ptr %9, align 4
  %214 = load i32, ptr %8, align 4
  %215 = mul nsw i32 %213, %214
  store i32 %215, ptr %8, align 4
  %216 = load double, ptr %4, align 8
  %217 = load i32, ptr %8, align 4
  %218 = call double @xpow10(i32 noundef %217)
  %219 = fmul double %216, %218
  store double %219, ptr %4, align 8
  br label %220

220:                                              ; preds = %212, %128, %123
  %221 = load i32, ptr %5, align 4
  %222 = sitofp i32 %221 to double
  %223 = load double, ptr %4, align 8
  %224 = fmul double %222, %223
  store double %224, ptr %2, align 8
  br label %225

225:                                              ; preds = %220, %13
  %226 = load double, ptr %2, align 8
  ret double %226
}