; Function Attrs: nofree nounwind uwtable
define internal fastcc double @ParseFloatNumber(ptr noundef readonly %0) unnamed_addr #4 {
  %2 = icmp eq ptr %0, null
  br i1 %2, label %78, label %3

3:                                                ; preds = %1
  %4 = load i8, ptr %0, align 1
  switch i8 %4, label %9 [
    i8 45, label %5
    i8 43, label %5
  ]

5:                                                ; preds = %3, %3
  %6 = icmp eq i8 %4, 45
  %7 = getelementptr inbounds i8, ptr %0, i64 1
  %8 = select i1 %6, double -1.000000e+00, double 1.000000e+00
  %.pre = load i8, ptr %7, align 1
  br label %9

9:                                                ; preds = %3, %5
  %10 = phi i8 [ %.pre, %5 ], [ %4, %3 ]
  %.060 = phi ptr [ %7, %5 ], [ %0, %3 ]
  %.057 = phi double [ %8, %5 ], [ 1.000000e+00, %3 ]
  %.not83 = icmp eq i8 %10, 0
  br i1 %.not83, label %.thread, label %.lr.ph

.lr.ph:                                           ; preds = %9
  %11 = tail call ptr @__ctype_b_loc() #18
  %12 = load ptr, ptr %11, align 8
  br label %13

13:                                               ; preds = %.lr.ph, %19
  %14 = phi i8 [ %10, %.lr.ph ], [ %25, %19 ]
  %.05885 = phi double [ 0.000000e+00, %.lr.ph ], [ %23, %19 ]
  %.16184 = phi ptr [ %.060, %.lr.ph ], [ %24, %19 ]
  %15 = sext i8 %14 to i64
  %16 = getelementptr inbounds i16, ptr %12, i64 %15
  %17 = load i16, ptr %16, align 2
  %18 = and i16 %17, 2048
  %.not70 = icmp eq i16 %18, 0
  br i1 %.not70, label %.critedge, label %19

19:                                               ; preds = %13
  %20 = sext i8 %14 to i32
  %21 = add nsw i32 %20, -48
  %22 = sitofp i32 %21 to double
  %23 = tail call double @llvm.fmuladd.f64(double %.05885, double 1.000000e+01, double %22)
  %24 = getelementptr inbounds i8, ptr %.16184, i64 1
  %25 = load i8, ptr %24, align 1
  %.not = icmp eq i8 %25, 0
  br i1 %.not, label %.thread, label %13, !llvm.loop !16

.critedge:                                        ; preds = %13
  %26 = icmp eq i8 %14, 46
  br i1 %26, label %.preheader, label %.thread111

.preheader:                                       ; preds = %.critedge
  %.486 = getelementptr inbounds i8, ptr %.16184, i64 1
  %27 = load i8, ptr %.486, align 1
  %.not7187 = icmp eq i8 %27, 0
  br i1 %.not7187, label %41, label %.lr.ph91

.lr.ph91:                                         ; preds = %.preheader, %33
  %28 = phi i8 [ %39, %33 ], [ %27, %.preheader ]
  %.490 = phi ptr [ %.4, %33 ], [ %.486, %.preheader ]
  %.05589 = phi i32 [ %38, %33 ], [ 0, %.preheader ]
  %.05688 = phi double [ %37, %33 ], [ 0.000000e+00, %.preheader ]
  %29 = sext i8 %28 to i64
  %30 = getelementptr inbounds i16, ptr %12, i64 %29
  %31 = load i16, ptr %30, align 2
  %32 = and i16 %31, 2048
  %.not72 = icmp eq i16 %32, 0
  br i1 %.not72, label %.critedge2.loopexit, label %33

33:                                               ; preds = %.lr.ph91
  %34 = sext i8 %28 to i32
  %35 = add nsw i32 %34, -48
  %36 = sitofp i32 %35 to double
  %37 = tail call double @llvm.fmuladd.f64(double %.05688, double 1.000000e+01, double %36)
  %38 = add nuw nsw i32 %.05589, 1
  %.4 = getelementptr inbounds i8, ptr %.490, i64 1
  %39 = load i8, ptr %.4, align 1
  %.not71 = icmp eq i8 %39, 0
  br i1 %.not71, label %.critedge2.loopexit, label %.lr.ph91, !llvm.loop !17

.critedge2.loopexit:                              ; preds = %33, %.lr.ph91
  %.056.lcssa.ph = phi double [ %.05688, %.lr.ph91 ], [ %37, %33 ]
  %.055.lcssa.ph = phi i32 [ %.05589, %.lr.ph91 ], [ %38, %33 ]
  %.4.lcssa.ph = phi ptr [ %.490, %.lr.ph91 ], [ %.4, %33 ]
  %40 = uitofp nneg i32 %.055.lcssa.ph to double
  br label %41

41:                                               ; preds = %.preheader, %.critedge2.loopexit
  %.056.lcssa = phi double [ 0.000000e+00, %.preheader ], [ %.056.lcssa.ph, %.critedge2.loopexit ]
  %.055.lcssa = phi double [ 0.000000e+00, %.preheader ], [ %40, %.critedge2.loopexit ]
  %.4.lcssa = phi ptr [ %.486, %.preheader ], [ %.4.lcssa.ph, %.critedge2.loopexit ]
  %42 = tail call double @pow(double noundef 1.000000e+01, double noundef %.055.lcssa) #17
  %43 = fdiv double %.056.lcssa, %42
  %44 = fadd double %.05885, %43
  %.pr.pre = load i8, ptr %.4.lcssa, align 1
  %.not73 = icmp eq i8 %.pr.pre, 0
  br i1 %.not73, label %.thread, label %.thread111

.thread111:                                       ; preds = %.critedge, %41
  %.159.ph118 = phi double [ %44, %41 ], [ %.05885, %.critedge ]
  %.6.ph117 = phi ptr [ %.4.lcssa, %41 ], [ %.16184, %.critedge ]
  %.pr116 = phi i8 [ %.pr.pre, %41 ], [ %14, %.critedge ]
  %45 = sext i8 %.pr116 to i32
  %46 = tail call i32 @toupper(i32 noundef %45) #19
  %47 = icmp eq i32 %46, 69
  br i1 %47, label %48, label %.thread

48:                                               ; preds = %.thread111
  %49 = getelementptr inbounds i8, ptr %.6.ph117, i64 1
  %50 = load i8, ptr %49, align 1
  switch i8 %50, label %53 [
    i8 45, label %thread-pre-split
    i8 43, label %51
  ]

51:                                               ; preds = %48
  br label %thread-pre-split

thread-pre-split:                                 ; preds = %48, %51
  %.053.ph = phi i32 [ 1, %51 ], [ -1, %48 ]
  %52 = getelementptr inbounds i8, ptr %.6.ph117, i64 2
  %.pr = load i8, ptr %52, align 1
  br label %53

53:                                               ; preds = %thread-pre-split, %48
  %54 = phi i8 [ %.pr, %thread-pre-split ], [ %50, %48 ]
  %.8 = phi ptr [ %52, %thread-pre-split ], [ %49, %48 ]
  %.053 = phi i32 [ %.053.ph, %thread-pre-split ], [ 1, %48 ]
  %.not7499 = icmp eq i8 %54, 0
  br i1 %.not7499, label %.critedge4, label %.lr.ph102

.lr.ph102:                                        ; preds = %53
  %55 = load ptr, ptr %11, align 8
  br label %56

56:                                               ; preds = %.lr.ph102, %62
  %57 = phi i8 [ %54, %.lr.ph102 ], [ %72, %62 ]
  %.054101 = phi i32 [ 0, %.lr.ph102 ], [ %.1, %62 ]
  %.9100 = phi ptr [ %.8, %.lr.ph102 ], [ %71, %62 ]
  %58 = sext i8 %57 to i64
  %59 = getelementptr inbounds i16, ptr %55, i64 %58
  %60 = load i16, ptr %59, align 2
  %61 = and i16 %60, 2048
  %.not75 = icmp eq i16 %61, 0
  br i1 %.not75, label %.critedge4, label %62

62:                                               ; preds = %56
  %63 = sext i8 %57 to i32
  %64 = add nsw i32 %63, -48
  %65 = sitofp i32 %.054101 to double
  %66 = sitofp i32 %64 to double
  %67 = tail call double @llvm.fmuladd.f64(double %65, double 1.000000e+01, double %66)
  %68 = fcmp olt double %67, 0x41DFFFFFFFC00000
  %69 = mul nsw i32 %.054101, 10
  %70 = add nsw i32 %64, %69
  %.1 = select i1 %68, i32 %70, i32 %.054101
  %71 = getelementptr inbounds i8, ptr %.9100, i64 1
  %72 = load i8, ptr %71, align 1
  %.not74 = icmp eq i8 %72, 0
  br i1 %.not74, label %.critedge4, label %56, !llvm.loop !18

.critedge4:                                       ; preds = %56, %62, %53
  %.054.lcssa = phi i32 [ 0, %53 ], [ %.1, %62 ], [ %.054101, %56 ]
  %73 = mul nsw i32 %.054.lcssa, %.053
  %74 = sitofp i32 %73 to double
  %75 = tail call double @pow(double noundef 1.000000e+01, double noundef %74) #17
  %76 = fmul double %.159.ph118, %75
  br label %.thread

.thread:                                          ; preds = %19, %9, %.critedge4, %.thread111, %41
  %.2 = phi double [ %76, %.critedge4 ], [ %.159.ph118, %.thread111 ], [ %44, %41 ], [ 0.000000e+00, %9 ], [ %23, %19 ]
  %77 = fmul double %.057, %.2
  br label %78

78:                                               ; preds = %1, %.thread
  %.0 = phi double [ %77, %.thread ], [ 0.000000e+00, %1 ]
  ret double %.0
}